; Function Attrs: mustprogress nounwind uwtable
define internal void @_ZN6hermes2vm16DroppingAcceptorIZNS0_6GCBase20sizeDiagnosticCensusEmE26HeapSizeDiagnosticAcceptorE6acceptERNS0_17GCHermesValueBaseINS0_11HermesValueEEEPKc(ptr nocapture noundef nonnull readonly align 8 dereferenceable(24) %this, ptr nocapture noundef nonnull readonly align 8 dereferenceable(8) %hv, ptr nocapture readnone %0) unnamed_addr #0 align 2 {
entry:
  %ref.tmp.i = alloca %"class.std::__cxx11::basic_string", align 8
  %ref.tmp2.i = alloca %"class.std::allocator.2", align 1
  %acceptor = getelementptr inbounds i8, ptr %this, i64 16
  %1 = load ptr, ptr %acceptor, align 8
  call void @llvm.lifetime.start.p0(i64 32, ptr nonnull %ref.tmp.i)
  call void @llvm.lifetime.start.p0(i64 1, ptr nonnull %ref.tmp2.i)
  %breakdown.i = getelementptr inbounds i8, ptr %1, i64 112
  call void @_ZNSaIcEC1Ev(ptr noundef nonnull align 1 dereferenceable(1) %ref.tmp2.i) #27
  %call.i.i = call noundef ptr @_ZNSt7__cxx1112basic_stringIcSt11char_traitsIcESaIcEE13_M_local_dataEv(ptr noundef nonnull align 8 dereferenceable(32) %ref.tmp.i) #27
  call void @_ZNSt7__cxx1112basic_stringIcSt11char_traitsIcESaIcEE12_Alloc_hiderC1EPcRKS3_(ptr noundef nonnull align 8 dereferenceable(8) %ref.tmp.i, ptr noundef %call.i.i, ptr noundef nonnull align 1 dereferenceable(1) %ref.tmp2.i) #27
  %call.i.i1 = call noundef ptr @_ZNSt7__cxx1112basic_stringIcSt11char_traitsIcESaIcEE13_M_local_dataEv(ptr noundef nonnull align 8 dereferenceable(32) %ref.tmp.i) #27
  %call4.i = call noundef ptr @_ZNKSt7__cxx1112basic_stringIcSt11char_traitsIcESaIcEE7_M_dataEv(ptr noundef nonnull align 8 dereferenceable(32) %ref.tmp.i) #27
  call void @_ZNSt7__cxx1112basic_stringIcSt11char_traitsIcESaIcEE13_S_copy_charsEPcPKcS7_(ptr noundef %call4.i, ptr noundef nonnull @.str.64, ptr noundef nonnull getelementptr inbounds ([12 x i8], ptr @.str.64, i64 0, i64 11)) #27
  call void @_ZNSt7__cxx1112basic_stringIcSt11char_traitsIcESaIcEE13_M_set_lengthEm(ptr noundef nonnull align 8 dereferenceable(32) %ref.tmp.i, i64 noundef 11) #27
  %call.i = call fastcc noundef nonnull align 8 dereferenceable(64) ptr @_ZNSt3mapINSt7__cxx1112basic_stringIcSt11char_traitsIcESaIcEEEZN6hermes2vm6GCBase20sizeDiagnosticCensusEmE14DiagnosticStatSt4lessIS5_ESaISt4pairIKS5_S9_EEEixEOS5_(ptr noundef nonnull align 8 dereferenceable(48) %breakdown.i, ptr noundef nonnull align 8 dereferenceable(32) %ref.tmp.i)
  call fastcc void @_ZZN6hermes2vm6GCBase20sizeDiagnosticCensusEmEN26HeapSizeDiagnosticAcceptor8acceptHVERKNS0_11HermesValueERZNS1_20sizeDiagnosticCensusEmE14DiagnosticStatm(ptr noundef nonnull align 8 dereferenceable(168) %1, ptr noundef nonnull align 8 dereferenceable(8) %hv, ptr noundef nonnull align 8 dereferenceable(64) %call.i, i64 noundef 8)
  call void @_ZNSt7__cxx1112basic_stringIcSt11char_traitsIcESaIcEED1Ev(ptr noundef nonnull align 8 dereferenceable(32) %ref.tmp.i) #27
  call void @_ZNSaIcED1Ev(ptr noundef nonnull align 1 dereferenceable(1) %ref.tmp2.i) #27
  call void @llvm.lifetime.end.p0(i64 32, ptr nonnull %ref.tmp.i)
  call void @llvm.lifetime.end.p0(i64 1, ptr nonnull %ref.tmp2.i)
  ret void
}